ccopy_reg
_reconstructor
p0
(cmodels.Speicher
Speicher
p1
c__builtin__
object
p2
Ntp3
Rp4
(dp5
S'distance'
p6
S'2'
p7
sS'buch'
p8
VTestbuch
p9
sS'vokabel_deutsch'
p10
Vtest
p11
sS'verzoegerung'
p12
csip
_unpickle_type
p13
(S'PyQt4.QtCore'
p14
S'QString'
p15
(V1000
p16
tp17
tp18
Rp19
sS'id_aktuell'
p20
I1
sS'richtige_anzeigen'
p21
I01
sS'lektion_ids'
p22
(lp23
I1
asS'meinten_sie'
p24
S'True'
p25
sS'lektion'
p26
VLektion1
p27
sS'abfragenGesamt'
p28
I7
sS'vokabel_ids'
p29
(lp30
I54
aI10
aI3
aI2
aI1
aI55
aI4
asS'vokabel_fremd'
p31
Vtest
p32
sS'labPunkte'
p33
g13
(g14
S'QString'
p34
(V0
p35
tp36
tp37
Rp38
sS'richtung'
p39
I1
sS'Fortschritt'
p40
I0
sb.